; Function Attrs: nounwind uwtable
define internal double @qp2bits_cb(ptr noundef readonly captures(none) %0, double noundef %1) #4 {
  %3 = fcmp nsz ugt double %1, 0.000000e+00
  br i1 %3, label %qp2bits.exit, label %4

4:                                                ; preds = %2
  tail call void (ptr, i32, ptr, ...) @av_log(ptr noundef null, i32 noundef 16, ptr noundef nonnull @.str.42) #13
  br label %qp2bits.exit

qp2bits.exit:                                     ; preds = %2, %4
  %5 = getelementptr inbounds nuw i8, ptr %0, i64 4
  %6 = load float, ptr %5, align 4, !tbaa !114
  %7 = fpext nsz float %6 to double
  %8 = getelementptr inbounds nuw i8, ptr %0, i64 24
  %9 = load i32, ptr %8, align 8, !tbaa !122
  %10 = getelementptr inbounds nuw i8, ptr %0, i64 28
  %11 = load i32, ptr %10, align 4, !tbaa !123
  %12 = add i32 %9, 1
  %13 = add i32 %12, %11
  %14 = sitofp i32 %13 to double
  %15 = fmul nsz double %7, %14
  %16 = fdiv nsz double %15, %1
  ret double %16
}